Certificate:
    Data:
        Version: 3 (0x2)
        Serial Number:
            41:5a:ce:71:7e:b8:ce:79:8d:4d:54:d5:42:aa:8a:9d:d6:de:0d:2d
        Signature Algorithm: sha256WithRSAEncryption
        Issuer: C = 22, ST = kare, L = kare, O = kare, OU = kare, CN = kare, emailAddress = kare
        Validity
            Not Before: Oct 17 22:51:45 2023 GMT
            Not After : Oct 16 22:51:45 2024 GMT
        Subject: C = 22, ST = kare, L = kare, O = kare, OU = kare, CN = kare, emailAddress = kare
        Subject Public Key Info:
            Public Key Algorithm: rsaEncryption
                Public-Key: (2048 bit)
                Modulus:
                    00:f7:f0:94:02:62:39:3c:78:3a:aa:06:2b:ab:ad:
                    52:e4:1e:c5:41:ae:7f:ed:ae:0f:81:4f:f3:68:f2:
                    58:85:a8:a8:df:e6:79:aa:6d:2f:b3:a2:e8:ab:45:
                    19:91:56:b3:96:d5:76:af:90:b8:54:0a:3f:35:98:
                    30:ae:ac:1c:88:6c:f4:82:8f:d6:3a:80:5d:31:2d:
                    9e:dd:7e:41:85:31:d3:90:f2:ba:95:e3:e5:6b:0d:
                    b6:88:ec:4c:33:fb:f2:2a:9c:52:db:ed:96:b0:29:
                    0d:fa:e9:56:20:99:f5:29:65:07:1d:a9:f4:ee:83:
                    78:a4:e3:7c:a4:6a:7d:a4:68:3b:d3:f5:88:91:33:
                    1c:eb:f5:61:13:d8:ee:d6:f8:02:45:42:1b:b0:1b:
                    29:dc:9c:37:6e:68:6d:64:15:fc:c6:99:dd:18:5e:
                    c2:d2:de:fe:29:f5:07:b4:79:49:c4:04:7f:07:38:
                    7c:5a:fb:4e:67:d8:11:9f:be:6b:fe:75:c9:90:e3:
                    c7:26:c6:12:53:0f:25:d3:f1:dd:7a:f6:d5:e2:24:
                    7d:a7:25:d1:8a:a7:67:69:c2:d0:be:5f:07:f0:6d:
                    50:89:65:f3:40:de:ce:85:85:b9:06:7a:0a:a9:de:
                    2e:b3:c6:ed:ea:f9:74:83:fc:92:8d:f7:f7:16:19:
                    e3:ff
                Exponent: 65537 (0x10001)
        X509v3 extensions:
            X509v3 Subject Key Identifier: 
                A0:3B:D1:D1:71:50:A6:92:3E:94:73:56:84:B2:11:3C:CB:11:1E:2E
            X509v3 Authority Key Identifier: 
                A0:3B:D1:D1:71:50:A6:92:3E:94:73:56:84:B2:11:3C:CB:11:1E:2E
            X509v3 Basic Constraints: critical
                CA:TRUE
    Signature Algorithm: sha256WithRSAEncryption
    Signature Value:
        f7:d7:50:1f:30:91:86:64:6e:a6:d2:89:87:2b:c1:03:60:3a:
        8b:dc:86:ed:19:ad:b6:40:d9:40:d1:58:25:82:e7:f3:97:9f:
        3b:d9:c6:cd:7c:ce:18:c2:c6:0b:a1:31:96:f7:c9:ab:c6:8d:
        50:60:1b:98:b1:f3:8c:a1:b3:65:a6:fc:5d:0e:38:05:7d:82:
        b8:49:fb:1c:16:50:bc:9f:10:9c:2f:f5:65:34:37:90:18:01:
        43:10:62:8b:72:0e:e7:bf:50:47:3c:56:3b:d7:bc:a6:fb:c6:
        63:ff:c6:2b:26:65:8c:fc:fe:c1:3e:50:de:86:56:87:76:83:
        5b:50:99:89:1b:2a:75:cb:ab:da:63:00:0d:41:b3:af:6e:de:
        e3:69:4a:a1:10:28:74:4e:ff:2c:aa:82:37:63:02:39:23:84:
        a9:65:b9:96:f9:c2:2c:1d:ad:d4:35:6b:ee:83:fc:9c:25:90:
        a6:58:17:7c:e4:2b:11:d8:15:b7:36:4c:30:94:d1:6c:38:fe:
        b6:5a:04:55:65:9d:4d:bf:26:a0:b3:5e:7b:b5:fb:b2:48:4b:
        d7:0d:9a:61:62:17:e0:62:a8:8a:de:3a:dd:35:21:ce:13:95:
        e5:fb:42:86:7c:46:6b:c6:eb:1a:a5:5b:0b:01:41:38:f6:fc:
        3a:b1:48:fe
-----BEGIN CERTIFICATE-----
MIIDuzCCAqOgAwIBAgIUQVrOcX64znmNTVTVQqqKndbeDS0wDQYJKoZIhvcNAQEL
BQAwbTELMAkGA1UEBhMCMjIxDTALBgNVBAgMBGthcmUxDTALBgNVBAcMBGthcmUx
DTALBgNVBAoMBGthcmUxDTALBgNVBAsMBGthcmUxDTALBgNVBAMMBGthcmUxEzAR
BgkqhkiG9w0BCQEWBGthcmUwHhcNMjMxMDE3MjI1MTQ1WhcNMjQxMDE2MjI1MTQ1
WjBtMQswCQYDVQQGEwIyMjENMAsGA1UECAwEa2FyZTENMAsGA1UEBwwEa2FyZTEN
MAsGA1UECgwEa2FyZTENMAsGA1UECwwEa2FyZTENMAsGA1UEAwwEa2FyZTETMBEG
CSqGSIb3DQEJARYEa2FyZTCCASIwDQYJKoZIhvcNAQEBBQADggEPADCCAQoCggEB
APfwlAJiOTx4OqoGK6utUuQexUGuf+2uD4FP82jyWIWoqN/meaptL7Oi6KtFGZFW
s5bVdq+QuFQKPzWYMK6sHIhs9IKP1jqAXTEtnt1+QYUx05DyupXj5WsNtojsTDP7
8iqcUtvtlrApDfrpViCZ9SllBx2p9O6DeKTjfKRqfaRoO9P1iJEzHOv1YRPY7tb4
AkVCG7AbKdycN25obWQV/MaZ3RhewtLe/in1B7R5ScQEfwc4fFr7TmfYEZ++a/51
yZDjxybGElMPJdPx3Xr21eIkfacl0YqnZ2nC0L5fB/BtUIll80DezoWFuQZ6Cqne
LrPG7er5dIP8ko339xYZ4/8CAwEAAaNTMFEwHQYDVR0OBBYEFKA70dFxUKaSPpRz
VoSyETzLER4uMB8GA1UdIwQYMBaAFKA70dFxUKaSPpRzVoSyETzLER4uMA8GA1Ud
EwEB/wQFMAMBAf8wDQYJKoZIhvcNAQELBQADggEBAPfXUB8wkYZkbqbSiYcrwQNg
Oovchu0ZrbZA2UDRWCWC5/OXnzvZxs18zhjCxguhMZb3yavGjVBgG5ix84yhs2Wm
/F0OOAV9grhJ+xwWULyfEJwv9WU0N5AYAUMQYotyDue/UEc8VjvXvKb7xmP/xism
ZYz8/sE+UN6GVod2g1tQmYkbKnXLq9pjAA1Bs69u3uNpSqEQKHRO/yyqgjdjAjkj
hKlluZb5wiwdrdQ1a+6D/JwlkKZYF3zkKxHYFbc2TDCU0Ww4/rZaBFVlnU2/JqCz
Xnu1+7JIS9cNmmFiF+BiqIreOt01Ic4TleX7QoZ8RmvG6xqlWwsBQTj2/DqxSP4=
-----END CERTIFICATE-----
